target datalayout = "e-m:e-p270:32:32-p271:32:32-p272:64:64-i64:64-i128:128-f80:128-n8:16:32:64-S128"
target triple = "x86_64-pc-linux-gnu"

%struct.DdManager = type { %struct.DdNode, ptr, ptr, ptr, ptr, ptr, ptr, ptr, i32, i32, double, double, double, i32, i32, i32, i32, i32, i32, ptr, ptr, %struct.DdSubtable, i32, i32, i32, i32, i32, i32, i32, double, i32, i32, i32, ptr, i64, double, i32, ptr, ptr, ptr, ptr, ptr, ptr, ptr, i32, ptr, ptr, ptr, ptr, ptr, ptr, i32, i32, i32, double, i32, i32, i32, i32, double, double, i32, i32, i32, i32, i32, i32, i32, i32, i32, ptr, ptr, i32, i32, i32, i32, i32, i32, ptr, ptr, ptr, ptr, ptr, ptr, ptr, ptr, i32, i64, i64, i64, i32, i64, i64, double, double, double, double, double, double, i32, ptr, ptr, i64 }
%struct.DdNode = type { i32, i32, ptr, %union.anon, i64 }
%union.anon = type { %struct.DdChildren }
%struct.DdChildren = type { ptr, ptr }
%struct.DdSubtable = type { ptr, i32, i32, i32, i32, i32, i32, i32, i32, i32, i32, i32 }

; Function Attrs: nounwind uwtable
define ptr @Cudd_zddDiffConst(ptr noundef %0, ptr noundef %1, ptr noundef %2) #0 {
  %4 = alloca ptr, align 8
  %5 = alloca ptr, align 8
  %6 = alloca ptr, align 8
  %7 = alloca ptr, align 8
  %8 = alloca i32, align 4
  %9 = alloca i32, align 4
  %10 = alloca ptr, align 8
  %11 = alloca ptr, align 8
  %12 = alloca ptr, align 8
  %13 = alloca ptr, align 8
  %14 = alloca i32, align 4
  store ptr %0, ptr %5, align 8, !tbaa !3
  store ptr %1, ptr %6, align 8, !tbaa !8
  store ptr %2, ptr %7, align 8, !tbaa !8
  call void @llvm.lifetime.start.p0(i64 4, ptr %8) #3
  call void @llvm.lifetime.start.p0(i64 4, ptr %9) #3
  call void @llvm.lifetime.start.p0(i64 8, ptr %10) #3
  %15 = load ptr, ptr %5, align 8, !tbaa !3
  %16 = getelementptr inbounds nuw %struct.DdManager, ptr %15, i32 0, i32 2
  %17 = load ptr, ptr %16, align 8, !tbaa !29
  store ptr %17, ptr %10, align 8, !tbaa !8
  call void @llvm.lifetime.start.p0(i64 8, ptr %11) #3
  call void @llvm.lifetime.start.p0(i64 8, ptr %12) #3
  call void @llvm.lifetime.start.p0(i64 8, ptr %13) #3
  %18 = load ptr, ptr %5, align 8, !tbaa !3
  store ptr %18, ptr %13, align 8, !tbaa !3
  %19 = load ptr, ptr %6, align 8, !tbaa !8
  %20 = load ptr, ptr %10, align 8, !tbaa !8
  %21 = icmp eq ptr %19, %20
  br i1 %21, label %22, label %24

22:                                               ; preds = %3
  %23 = load ptr, ptr %10, align 8, !tbaa !8
  store ptr %23, ptr %4, align 8
  store i32 1, ptr %14, align 4
  br label %134

24:                                               ; preds = %3
  %25 = load ptr, ptr %7, align 8, !tbaa !8
  %26 = load ptr, ptr %10, align 8, !tbaa !8
  %27 = icmp eq ptr %25, %26
  br i1 %27, label %28, label %30

28:                                               ; preds = %24
  %29 = load ptr, ptr %6, align 8, !tbaa !8
  store ptr %29, ptr %4, align 8
  store i32 1, ptr %14, align 4
  br label %134

30:                                               ; preds = %24
  %31 = load ptr, ptr %6, align 8, !tbaa !8
  %32 = load ptr, ptr %7, align 8, !tbaa !8
  %33 = icmp eq ptr %31, %32
  br i1 %33, label %34, label %36

34:                                               ; preds = %30
  %35 = load ptr, ptr %10, align 8, !tbaa !8
  store ptr %35, ptr %4, align 8
  store i32 1, ptr %14, align 4
  br label %134

36:                                               ; preds = %30
  %37 = load ptr, ptr %13, align 8, !tbaa !3
  %38 = load ptr, ptr %6, align 8, !tbaa !8
  %39 = load ptr, ptr %7, align 8, !tbaa !8
  %40 = call ptr @cuddCacheLookup2Zdd(ptr noundef %37, ptr noundef @cuddZddDiff, ptr noundef %38, ptr noundef %39)
  store ptr %40, ptr %12, align 8, !tbaa !8
  %41 = load ptr, ptr %12, align 8, !tbaa !8
  %42 = icmp ne ptr %41, null
  br i1 %42, label %43, label %45

43:                                               ; preds = %36
  %44 = load ptr, ptr %12, align 8, !tbaa !8
  store ptr %44, ptr %4, align 8
  store i32 1, ptr %14, align 4
  br label %134

45:                                               ; preds = %36
  %46 = load ptr, ptr %6, align 8, !tbaa !8
  %47 = getelementptr inbounds nuw %struct.DdNode, ptr %46, i32 0, i32 0
  %48 = load i32, ptr %47, align 8, !tbaa !30
  %49 = icmp eq i32 %48, 2147483647
  br i1 %49, label %50, label %54

50:                                               ; preds = %45
  %51 = load ptr, ptr %6, align 8, !tbaa !8
  %52 = getelementptr inbounds nuw %struct.DdNode, ptr %51, i32 0, i32 0
  %53 = load i32, ptr %52, align 8, !tbaa !30
  store i32 %53, ptr %8, align 4, !tbaa !32
  br label %64

54:                                               ; preds = %45
  %55 = load ptr, ptr %5, align 8, !tbaa !3
  %56 = getelementptr inbounds nuw %struct.DdManager, ptr %55, i32 0, i32 38
  %57 = load ptr, ptr %56, align 8, !tbaa !31
  %58 = load ptr, ptr %6, align 8, !tbaa !8
  %59 = getelementptr inbounds nuw %struct.DdNode, ptr %58, i32 0, i32 0
  %60 = load i32, ptr %59, align 8, !tbaa !30
  %61 = zext i32 %60 to i64
  %62 = getelementptr inbounds nuw i32, ptr %57, i64 %61
  %63 = load i32, ptr %62, align 4, !tbaa !32
  store i32 %63, ptr %8, align 4, !tbaa !32
  br label %64

64:                                               ; preds = %54, %50
  %65 = load ptr, ptr %7, align 8, !tbaa !8
  %66 = getelementptr inbounds nuw %struct.DdNode, ptr %65, i32 0, i32 0
  %67 = load i32, ptr %66, align 8, !tbaa !30
  %68 = icmp eq i32 %67, 2147483647
  br i1 %68, label %69, label %73

69:                                               ; preds = %64
  %70 = load ptr, ptr %7, align 8, !tbaa !8
  %71 = getelementptr inbounds nuw %struct.DdNode, ptr %70, i32 0, i32 0
  %72 = load i32, ptr %71, align 8, !tbaa !30
  store i32 %72, ptr %9, align 4, !tbaa !32
  br label %83

73:                                               ; preds = %64
  %74 = load ptr, ptr %5, align 8, !tbaa !3
  %75 = getelementptr inbounds nuw %struct.DdManager, ptr %74, i32 0, i32 38
  %76 = load ptr, ptr %75, align 8, !tbaa !31
  %77 = load ptr, ptr %7, align 8, !tbaa !8
  %78 = getelementptr inbounds nuw %struct.DdNode, ptr %77, i32 0, i32 0
  %79 = load i32, ptr %78, align 8, !tbaa !30
  %80 = zext i32 %79 to i64
  %81 = getelementptr inbounds nuw i32, ptr %76, i64 %80
  %82 = load i32, ptr %81, align 4, !tbaa !32
  store i32 %82, ptr %9, align 4, !tbaa !32
  br label %83

83:                                               ; preds = %73, %69
  %84 = load i32, ptr %8, align 4, !tbaa !32
  %85 = load i32, ptr %9, align 4, !tbaa !32
  %86 = icmp slt i32 %84, %85
  br i1 %86, label %87, label %88

87:                                               ; preds = %83
  store ptr inttoptr (i64 1 to ptr), ptr %12, align 8, !tbaa !8
  br label %128

88:                                               ; preds = %83
  %89 = load i32, ptr %8, align 4, !tbaa !32
  %90 = load i32, ptr %9, align 4, !tbaa !32
  %91 = icmp sgt i32 %89, %90
  br i1 %91, label %92, label %100

92:                                               ; preds = %88
  %93 = load ptr, ptr %5, align 8, !tbaa !3
  %94 = load ptr, ptr %6, align 8, !tbaa !8
  %95 = load ptr, ptr %7, align 8, !tbaa !8
  %96 = getelementptr inbounds nuw %struct.DdNode, ptr %95, i32 0, i32 3
  %97 = getelementptr inbounds nuw %struct.DdChildren, ptr %96, i32 0, i32 1
  %98 = load ptr, ptr %97, align 8, !tbaa !35
  %99 = call ptr @Cudd_zddDiffConst(ptr noundef %93, ptr noundef %94, ptr noundef %98)
  store ptr %99, ptr %12, align 8, !tbaa !8
  br label %127

100:                                              ; preds = %88
  %101 = load ptr, ptr %5, align 8, !tbaa !3
  %102 = load ptr, ptr %6, align 8, !tbaa !8
  %103 = getelementptr inbounds nuw %struct.DdNode, ptr %102, i32 0, i32 3
  %104 = getelementptr inbounds nuw %struct.DdChildren, ptr %103, i32 0, i32 0
  %105 = load ptr, ptr %104, align 8, !tbaa !35
  %106 = load ptr, ptr %7, align 8, !tbaa !8
  %107 = getelementptr inbounds nuw %struct.DdNode, ptr %106, i32 0, i32 3
  %108 = getelementptr inbounds nuw %struct.DdChildren, ptr %107, i32 0, i32 0
  %109 = load ptr, ptr %108, align 8, !tbaa !35
  %110 = call ptr @Cudd_zddDiffConst(ptr noundef %101, ptr noundef %105, ptr noundef %109)
  store ptr %110, ptr %11, align 8, !tbaa !8
  %111 = load ptr, ptr %11, align 8, !tbaa !8
  %112 = load ptr, ptr %10, align 8, !tbaa !8
  %113 = icmp ne ptr %111, %112
  br i1 %113, label %114, label %115

114:                                              ; preds = %100
  store ptr inttoptr (i64 1 to ptr), ptr %12, align 8, !tbaa !8
  br label %126

115:                                              ; preds = %100
  %116 = load ptr, ptr %5, align 8, !tbaa !3
  %117 = load ptr, ptr %6, align 8, !tbaa !8
  %118 = getelementptr inbounds nuw %struct.DdNode, ptr %117, i32 0, i32 3
  %119 = getelementptr inbounds nuw %struct.DdChildren, ptr %118, i32 0, i32 1
  %120 = load ptr, ptr %119, align 8, !tbaa !35
  %121 = load ptr, ptr %7, align 8, !tbaa !8
  %122 = getelementptr inbounds nuw %struct.DdNode, ptr %121, i32 0, i32 3
  %123 = getelementptr inbounds nuw %struct.DdChildren, ptr %122, i32 0, i32 1
  %124 = load ptr, ptr %123, align 8, !tbaa !35
  %125 = call ptr @Cudd_zddDiffConst(ptr noundef %116, ptr noundef %120, ptr noundef %124)
  store ptr %125, ptr %12, align 8, !tbaa !8
  br label %126

126:                                              ; preds = %115, %114
  br label %127

127:                                              ; preds = %126, %92
  br label %128

128:                                              ; preds = %127, %87
  %129 = load ptr, ptr %13, align 8, !tbaa !3
  %130 = load ptr, ptr %6, align 8, !tbaa !8
  %131 = load ptr, ptr %7, align 8, !tbaa !8
  %132 = load ptr, ptr %12, align 8, !tbaa !8
  call void @cuddCacheInsert2(ptr noundef %129, ptr noundef @cuddZddDiff, ptr noundef %130, ptr noundef %131, ptr noundef %132)
  %133 = load ptr, ptr %12, align 8, !tbaa !8
  store ptr %133, ptr %4, align 8
  store i32 1, ptr %14, align 4
  br label %134

134:                                              ; preds = %128, %43, %34, %28, %22
  call void @llvm.lifetime.end.p0(i64 8, ptr %13) #3
  call void @llvm.lifetime.end.p0(i64 8, ptr %12) #3
  call void @llvm.lifetime.end.p0(i64 8, ptr %11) #3
  call void @llvm.lifetime.end.p0(i64 8, ptr %10) #3
  call void @llvm.lifetime.end.p0(i64 4, ptr %9) #3
  call void @llvm.lifetime.end.p0(i64 4, ptr %8) #3
  %135 = load ptr, ptr %4, align 8
  ret ptr %135
}