; Function Attrs: nounwind uwtable
define ptr @Cudd_zddDiffConst(ptr noundef %0, ptr noundef %1, ptr noundef %2) local_unnamed_addr #0 {
  %4 = getelementptr inbounds nuw i8, ptr %0, i64 48
  %5 = load ptr, ptr %4, align 8, !tbaa !26
  %6 = icmp eq ptr %1, %5
  br i1 %6, label %48, label %7

7:                                                ; preds = %3
  %8 = icmp eq ptr %2, %5
  br i1 %8, label %48, label %9

9:                                                ; preds = %7
  %10 = icmp eq ptr %1, %2
  br i1 %10, label %48, label %11

11:                                               ; preds = %9
  %12 = tail call ptr @cuddCacheLookup2Zdd(ptr noundef nonnull %0, ptr noundef nonnull @cuddZddDiff, ptr noundef %1, ptr noundef %2) #3
  %.not = icmp eq ptr %12, null
  br i1 %.not, label %13, label %48

13:                                               ; preds = %11
  %14 = load i32, ptr %1, align 8, !tbaa !27
  %15 = icmp eq i32 %14, 2147483647
  br i1 %15, label %22, label %16

16:                                               ; preds = %13
  %17 = getelementptr inbounds nuw i8, ptr %0, i64 320
  %18 = load ptr, ptr %17, align 8, !tbaa !28
  %19 = zext i32 %14 to i64
  %20 = getelementptr inbounds nuw i32, ptr %18, i64 %19
  %21 = load i32, ptr %20, align 4, !tbaa !29
  br label %22

22:                                               ; preds = %13, %16
  %.045 = phi i32 [ %21, %16 ], [ 2147483647, %13 ]
  %23 = load i32, ptr %2, align 8, !tbaa !27
  %24 = icmp eq i32 %23, 2147483647
  br i1 %24, label %31, label %25

25:                                               ; preds = %22
  %26 = getelementptr inbounds nuw i8, ptr %0, i64 320
  %27 = load ptr, ptr %26, align 8, !tbaa !28
  %28 = zext i32 %23 to i64
  %29 = getelementptr inbounds nuw i32, ptr %27, i64 %28
  %30 = load i32, ptr %29, align 4, !tbaa !29
  br label %31

31:                                               ; preds = %22, %25
  %.046 = phi i32 [ %30, %25 ], [ 2147483647, %22 ]
  %32 = icmp slt i32 %.045, %.046
  br i1 %32, label %47, label %33

33:                                               ; preds = %31
  %34 = icmp sgt i32 %.045, %.046
  br i1 %34, label %.sink.split, label %35

35:                                               ; preds = %33
  %36 = getelementptr inbounds nuw i8, ptr %1, i64 16
  %37 = load ptr, ptr %36, align 8, !tbaa !32
  %38 = getelementptr inbounds nuw i8, ptr %2, i64 16
  %39 = load ptr, ptr %38, align 8, !tbaa !32
  %40 = tail call ptr @Cudd_zddDiffConst(ptr noundef nonnull %0, ptr noundef %37, ptr noundef %39)
  %.not55 = icmp eq ptr %40, %5
  br i1 %.not55, label %41, label %47

41:                                               ; preds = %35
  %42 = getelementptr inbounds nuw i8, ptr %1, i64 24
  %43 = load ptr, ptr %42, align 8, !tbaa !32
  br label %.sink.split

.sink.split:                                      ; preds = %33, %41
  %.sink = phi ptr [ %43, %41 ], [ %1, %33 ]
  %44 = getelementptr inbounds nuw i8, ptr %2, i64 24
  %45 = load ptr, ptr %44, align 8, !tbaa !32
  %46 = tail call ptr @Cudd_zddDiffConst(ptr noundef nonnull %0, ptr noundef %.sink, ptr noundef %45)
  br label %47

47:                                               ; preds = %.sink.split, %35, %31
  %.044 = phi ptr [ inttoptr (i64 1 to ptr), %31 ], [ inttoptr (i64 1 to ptr), %35 ], [ %46, %.sink.split ]
  tail call void @cuddCacheInsert2(ptr noundef nonnull %0, ptr noundef nonnull @cuddZddDiff, ptr noundef nonnull %1, ptr noundef nonnull %2, ptr noundef %.044) #3
  br label %48

48:                                               ; preds = %11, %9, %7, %3, %47
  %.0 = phi ptr [ %.044, %47 ], [ %5, %3 ], [ %1, %7 ], [ %5, %9 ], [ %12, %11 ]
  ret ptr %.0
}